; Function Attrs: nofree norecurse nosync nounwind memory(argmem: readwrite) uwtable
define internal void @conv_AV_SAMPLE_FMT_FLT_to_AV_SAMPLE_FMT_S16(ptr noundef writeonly captures(address) %0, ptr noundef readonly captures(none) %1, i32 noundef %2, i32 noundef %3, ptr noundef readnone captures(address) %4) #4 {
  %6 = mul nsw i32 %3, 3
  %7 = sext i32 %6 to i64
  %8 = sub nsw i64 0, %7
  %9 = getelementptr inbounds i8, ptr %4, i64 %8
  %10 = icmp ult ptr %0, %9
  br i1 %10, label %.lr.ph, label %.preheader

.lr.ph:                                           ; preds = %5
  %11 = sext i32 %2 to i64
  %12 = sext i32 %3 to i64
  br label %16

.preheader:                                       ; preds = %16, %5
  %.035.lcssa = phi ptr [ %1, %5 ], [ %55, %16 ]
  %.0.lcssa = phi ptr [ %0, %5 ], [ %56, %16 ]
  %13 = icmp ult ptr %.0.lcssa, %4
  br i1 %13, label %.lr.ph50, label %._crit_edge

.lr.ph50:                                         ; preds = %.preheader
  %14 = sext i32 %2 to i64
  %15 = sext i32 %3 to i64
  br label %58

16:                                               ; preds = %.lr.ph, %16
  %.046 = phi ptr [ %0, %.lr.ph ], [ %56, %16 ]
  %.03545 = phi ptr [ %1, %.lr.ph ], [ %55, %16 ]
  %17 = load float, ptr %.03545, align 4, !tbaa !38
  %18 = fmul nsz float %17, 3.276800e+04
  %19 = tail call i64 @llvm.lrint.i64.f32(float %18)
  %20 = trunc i64 %19 to i32
  %21 = add i32 %20, 32768
  %.not.i = icmp ult i32 %21, 65536
  %22 = icmp sgt i32 %20, -1
  %23 = select i1 %22, i16 32767, i16 -32768
  %24 = trunc i64 %19 to i16
  %.0.i = select i1 %.not.i, i16 %24, i16 %23
  store i16 %.0.i, ptr %.046, align 2, !tbaa !32
  %25 = getelementptr inbounds i8, ptr %.03545, i64 %11
  %26 = getelementptr inbounds i8, ptr %.046, i64 %12
  %27 = load float, ptr %25, align 4, !tbaa !38
  %28 = fmul nsz float %27, 3.276800e+04
  %29 = tail call i64 @llvm.lrint.i64.f32(float %28)
  %30 = trunc i64 %29 to i32
  %31 = add i32 %30, 32768
  %.not.i37 = icmp ult i32 %31, 65536
  %32 = icmp sgt i32 %30, -1
  %33 = select i1 %32, i16 32767, i16 -32768
  %34 = trunc i64 %29 to i16
  %.0.i38 = select i1 %.not.i37, i16 %34, i16 %33
  store i16 %.0.i38, ptr %26, align 2, !tbaa !32
  %35 = getelementptr inbounds i8, ptr %25, i64 %11
  %36 = getelementptr inbounds i8, ptr %26, i64 %12
  %37 = load float, ptr %35, align 4, !tbaa !38
  %38 = fmul nsz float %37, 3.276800e+04
  %39 = tail call i64 @llvm.lrint.i64.f32(float %38)
  %40 = trunc i64 %39 to i32
  %41 = add i32 %40, 32768
  %.not.i39 = icmp ult i32 %41, 65536
  %42 = icmp sgt i32 %40, -1
  %43 = select i1 %42, i16 32767, i16 -32768
  %44 = trunc i64 %39 to i16
  %.0.i40 = select i1 %.not.i39, i16 %44, i16 %43
  store i16 %.0.i40, ptr %36, align 2, !tbaa !32
  %45 = getelementptr inbounds i8, ptr %35, i64 %11
  %46 = getelementptr inbounds i8, ptr %36, i64 %12
  %47 = load float, ptr %45, align 4, !tbaa !38
  %48 = fmul nsz float %47, 3.276800e+04
  %49 = tail call i64 @llvm.lrint.i64.f32(float %48)
  %50 = trunc i64 %49 to i32
  %51 = add i32 %50, 32768
  %.not.i41 = icmp ult i32 %51, 65536
  %52 = icmp sgt i32 %50, -1
  %53 = select i1 %52, i16 32767, i16 -32768
  %54 = trunc i64 %49 to i16
  %.0.i42 = select i1 %.not.i41, i16 %54, i16 %53
  store i16 %.0.i42, ptr %46, align 2, !tbaa !32
  %55 = getelementptr inbounds i8, ptr %45, i64 %11
  %56 = getelementptr inbounds i8, ptr %46, i64 %12
  %57 = icmp ult ptr %56, %9
  br i1 %57, label %16, label %.preheader, !llvm.loop !76

58:                                               ; preds = %.lr.ph50, %58
  %.149 = phi ptr [ %.0.lcssa, %.lr.ph50 ], [ %68, %58 ]
  %.13648 = phi ptr [ %.035.lcssa, %.lr.ph50 ], [ %67, %58 ]
  %59 = load float, ptr %.13648, align 4, !tbaa !38
  %60 = fmul nsz float %59, 3.276800e+04
  %61 = tail call i64 @llvm.lrint.i64.f32(float %60)
  %62 = trunc i64 %61 to i32
  %63 = add i32 %62, 32768
  %.not.i43 = icmp ult i32 %63, 65536
  %64 = icmp sgt i32 %62, -1
  %65 = select i1 %64, i16 32767, i16 -32768
  %66 = trunc i64 %61 to i16
  %.0.i44 = select i1 %.not.i43, i16 %66, i16 %65
  store i16 %.0.i44, ptr %.149, align 2, !tbaa !32
  %67 = getelementptr inbounds i8, ptr %.13648, i64 %14
  %68 = getelementptr inbounds i8, ptr %.149, i64 %15
  %69 = icmp ult ptr %68, %4
  br i1 %69, label %58, label %._crit_edge, !llvm.loop !77

._crit_edge:                                      ; preds = %58, %.preheader
  ret void
}